Archive member included to satisfy reference by file (symbol)

/usr/lib/gcc/arm-none-eabi/10.3.1/../../../arm-none-eabi/lib/thumb/v7-m/nofp/libc_nano.a(lib_a-memcpy.o)
                              freertos/kernel/queue.o (memcpy)
/usr/lib/gcc/arm-none-eabi/10.3.1/../../../arm-none-eabi/lib/thumb/v7-m/nofp/libc_nano.a(lib_a-memset.o)
                              freertos/kernel/tasks.o (memset)

Discarded input sections

 .group         0x0000000000000000        0xc src/startup.o
 .group         0x0000000000000000        0xc src/startup.o
 .data          0x0000000000000000        0x0 src/startup.o
 .bss           0x0000000000000000        0x0 src/startup.o
 .group         0x0000000000000000        0xc src/uart.o
 .group         0x0000000000000000        0xc src/uart.o
 .group         0x0000000000000000        0xc src/uart.o
 .group         0x0000000000000000        0xc src/uart.o
 .data          0x0000000000000000        0x0 src/uart.o
 .bss           0x0000000000000000        0x0 src/uart.o
 .debug_macro   0x0000000000000000      0xa5a src/uart.o
 .debug_macro   0x0000000000000000      0x34e src/uart.o
 .group         0x0000000000000000        0xc src/i2c.o
 .group         0x0000000000000000        0xc src/i2c.o
 .group         0x0000000000000000        0xc src/i2c.o
 .group         0x0000000000000000        0xc src/i2c.o
 .data          0x0000000000000000        0x0 src/i2c.o
 .bss           0x0000000000000000        0x0 src/i2c.o
 .debug_macro   0x0000000000000000      0xa5a src/i2c.o
 .debug_macro   0x0000000000000000      0x34e src/i2c.o
 .group         0x0000000000000000        0xc src/hdc1080.o
 .group         0x0000000000000000        0xc src/hdc1080.o
 .group         0x0000000000000000        0xc src/hdc1080.o
 .group         0x0000000000000000        0xc src/hdc1080.o
 .group         0x0000000000000000        0xc src/hdc1080.o
 .data          0x0000000000000000        0x0 src/hdc1080.o
 .bss           0x0000000000000000        0x0 src/hdc1080.o
 .debug_macro   0x0000000000000000      0xa5a src/hdc1080.o
 .debug_macro   0x0000000000000000      0x34e src/hdc1080.o
 .debug_macro   0x0000000000000000       0x2e src/hdc1080.o
 .group         0x0000000000000000        0xc src/main.o
 .group         0x0000000000000000        0xc src/main.o
 .group         0x0000000000000000        0xc src/main.o
 .group         0x0000000000000000        0xc src/main.o
 .group         0x0000000000000000        0xc src/main.o
 .group         0x0000000000000000        0xc src/main.o
 .group         0x0000000000000000        0xc src/main.o
 .group         0x0000000000000000        0xc src/main.o
 .group         0x0000000000000000        0xc src/main.o
 .group         0x0000000000000000        0xc src/main.o
 .group         0x0000000000000000        0xc src/main.o
 .group         0x0000000000000000        0xc src/main.o
 .group         0x0000000000000000        0xc src/main.o
 .group         0x0000000000000000        0xc src/main.o
 .group         0x0000000000000000        0xc src/main.o
 .group         0x0000000000000000        0xc src/main.o
 .group         0x0000000000000000        0xc src/main.o
 .group         0x0000000000000000        0xc src/main.o
 .group         0x0000000000000000        0xc src/main.o
 .data          0x0000000000000000        0x0 src/main.o
 .debug_macro   0x0000000000000000      0xa5a src/main.o
 .debug_macro   0x0000000000000000      0x34e src/main.o
 .debug_macro   0x0000000000000000       0x2e src/main.o
 .debug_macro   0x0000000000000000       0x4c src/main.o
 .group         0x0000000000000000        0xc freertos/kernel/tasks.o
 .group         0x0000000000000000        0xc freertos/kernel/tasks.o
 .group         0x0000000000000000        0xc freertos/kernel/tasks.o
 .group         0x0000000000000000        0xc freertos/kernel/tasks.o
 .group         0x0000000000000000        0xc freertos/kernel/tasks.o
 .group         0x0000000000000000        0xc freertos/kernel/tasks.o
 .group         0x0000000000000000        0xc freertos/kernel/tasks.o
 .group         0x0000000000000000        0xc freertos/kernel/tasks.o
 .group         0x0000000000000000        0xc freertos/kernel/tasks.o
 .group         0x0000000000000000        0xc freertos/kernel/tasks.o
 .group         0x0000000000000000        0xc freertos/kernel/tasks.o
 .group         0x0000000000000000        0xc freertos/kernel/tasks.o
 .group         0x0000000000000000        0xc freertos/kernel/tasks.o
 .group         0x0000000000000000        0xc freertos/kernel/tasks.o
 .group         0x0000000000000000        0xc freertos/kernel/tasks.o
 .group         0x0000000000000000        0xc freertos/kernel/tasks.o
 .group         0x0000000000000000        0xc freertos/kernel/tasks.o
 .group         0x0000000000000000        0xc freertos/kernel/tasks.o
 .group         0x0000000000000000        0xc freertos/kernel/tasks.o
 .group         0x0000000000000000        0xc freertos/kernel/tasks.o
 .group         0x0000000000000000        0xc freertos/kernel/tasks.o
 .group         0x0000000000000000        0xc freertos/kernel/tasks.o
 .group         0x0000000000000000        0xc freertos/kernel/tasks.o
 .group         0x0000000000000000        0xc freertos/kernel/tasks.o
 .group         0x0000000000000000        0xc freertos/kernel/tasks.o
 .group         0x0000000000000000        0xc freertos/kernel/tasks.o
 .group         0x0000000000000000        0xc freertos/kernel/tasks.o
 .group         0x0000000000000000        0xc freertos/kernel/tasks.o
 .group         0x0000000000000000        0xc freertos/kernel/tasks.o
 .group         0x0000000000000000        0xc freertos/kernel/tasks.o
 .group         0x0000000000000000        0xc freertos/kernel/tasks.o
 .group         0x0000000000000000        0xc freertos/kernel/tasks.o
 .group         0x0000000000000000        0xc freertos/kernel/tasks.o
 .group         0x0000000000000000        0xc freertos/kernel/tasks.o
 .group         0x0000000000000000        0xc freertos/kernel/tasks.o
 .group         0x0000000000000000        0xc freertos/kernel/tasks.o
 .debug_macro   0x0000000000000000      0xa5a freertos/kernel/tasks.o
 .debug_macro   0x0000000000000000      0x34e freertos/kernel/tasks.o
 .debug_macro   0x0000000000000000       0x16 freertos/kernel/tasks.o
 .debug_macro   0x0000000000000000      0x124 freertos/kernel/tasks.o
 .debug_macro   0x0000000000000000       0x34 freertos/kernel/tasks.o
 .debug_macro   0x0000000000000000      0x182 freertos/kernel/tasks.o
 .debug_macro   0x0000000000000000       0xe0 freertos/kernel/tasks.o
 .debug_macro   0x0000000000000000       0x3a freertos/kernel/tasks.o
 .debug_macro   0x0000000000000000       0x1f freertos/kernel/tasks.o
 .debug_macro   0x0000000000000000       0x12 freertos/kernel/tasks.o
 .debug_macro   0x0000000000000000     0x10d4 freertos/kernel/tasks.o
 .debug_macro   0x0000000000000000       0xc3 freertos/kernel/tasks.o
 .debug_macro   0x0000000000000000      0x161 freertos/kernel/tasks.o
 .group         0x0000000000000000        0xc freertos/kernel/queue.o
 .group         0x0000000000000000        0xc freertos/kernel/queue.o
 .group         0x0000000000000000        0xc freertos/kernel/queue.o
 .group         0x0000000000000000        0xc freertos/kernel/queue.o
 .group         0x0000000000000000        0xc freertos/kernel/queue.o
 .group         0x0000000000000000        0xc freertos/kernel/queue.o
 .group         0x0000000000000000        0xc freertos/kernel/queue.o
 .group         0x0000000000000000        0xc freertos/kernel/queue.o
 .group         0x0000000000000000        0xc freertos/kernel/queue.o
 .group         0x0000000000000000        0xc freertos/kernel/queue.o
 .group         0x0000000000000000        0xc freertos/kernel/queue.o
 .group         0x0000000000000000        0xc freertos/kernel/queue.o
 .group         0x0000000000000000        0xc freertos/kernel/queue.o
 .group         0x0000000000000000        0xc freertos/kernel/queue.o
 .group         0x0000000000000000        0xc freertos/kernel/queue.o
 .group         0x0000000000000000        0xc freertos/kernel/queue.o
 .group         0x0000000000000000        0xc freertos/kernel/queue.o
 .group         0x0000000000000000        0xc freertos/kernel/queue.o
 .group         0x0000000000000000        0xc freertos/kernel/queue.o
 .group         0x0000000000000000        0xc freertos/kernel/queue.o
 .group         0x0000000000000000        0xc freertos/kernel/queue.o
 .group         0x0000000000000000        0xc freertos/kernel/queue.o
 .group         0x0000000000000000        0xc freertos/kernel/queue.o
 .group         0x0000000000000000        0xc freertos/kernel/queue.o
 .group         0x0000000000000000        0xc freertos/kernel/queue.o
 .group         0x0000000000000000        0xc freertos/kernel/queue.o
 .group         0x0000000000000000        0xc freertos/kernel/queue.o
 .group         0x0000000000000000        0xc freertos/kernel/queue.o
 .group         0x0000000000000000        0xc freertos/kernel/queue.o
 .group         0x0000000000000000        0xc freertos/kernel/queue.o
 .group         0x0000000000000000        0xc freertos/kernel/queue.o
 .group         0x0000000000000000        0xc freertos/kernel/queue.o
 .group         0x0000000000000000        0xc freertos/kernel/queue.o
 .group         0x0000000000000000        0xc freertos/kernel/queue.o
 .group         0x0000000000000000        0xc freertos/kernel/queue.o
 .data          0x0000000000000000        0x0 freertos/kernel/queue.o
 .debug_macro   0x0000000000000000      0xa5a freertos/kernel/queue.o
 .debug_macro   0x0000000000000000       0x18 freertos/kernel/queue.o
 .debug_macro   0x0000000000000000       0x22 freertos/kernel/queue.o
 .debug_macro   0x0000000000000000       0x52 freertos/kernel/queue.o
 .debug_macro   0x0000000000000000       0x94 freertos/kernel/queue.o
 .debug_macro   0x0000000000000000       0x35 freertos/kernel/queue.o
 .debug_macro   0x0000000000000000       0x34 freertos/kernel/queue.o
 .debug_macro   0x0000000000000000       0x16 freertos/kernel/queue.o
 .debug_macro   0x0000000000000000      0x10e freertos/kernel/queue.o
 .debug_macro   0x0000000000000000       0x8d freertos/kernel/queue.o
 .debug_macro   0x0000000000000000       0x16 freertos/kernel/queue.o
 .debug_macro   0x0000000000000000       0x43 freertos/kernel/queue.o
 .debug_macro   0x0000000000000000       0x57 freertos/kernel/queue.o
 .debug_macro   0x0000000000000000       0x34 freertos/kernel/queue.o
 .debug_macro   0x0000000000000000       0x10 freertos/kernel/queue.o
 .debug_macro   0x0000000000000000       0x52 freertos/kernel/queue.o
 .debug_macro   0x0000000000000000      0x182 freertos/kernel/queue.o
 .debug_macro   0x0000000000000000      0x333 freertos/kernel/queue.o
 .debug_macro   0x0000000000000000       0x16 freertos/kernel/queue.o
 .debug_macro   0x0000000000000000       0x29 freertos/kernel/queue.o
 .debug_macro   0x0000000000000000       0x16 freertos/kernel/queue.o
 .debug_macro   0x0000000000000000       0x35 freertos/kernel/queue.o
 .debug_macro   0x0000000000000000      0x34e freertos/kernel/queue.o
 .debug_macro   0x0000000000000000       0x16 freertos/kernel/queue.o
 .debug_macro   0x0000000000000000      0x124 freertos/kernel/queue.o
 .debug_macro   0x0000000000000000       0x34 freertos/kernel/queue.o
 .debug_macro   0x0000000000000000      0x182 freertos/kernel/queue.o
 .debug_macro   0x0000000000000000       0xe0 freertos/kernel/queue.o
 .debug_macro   0x0000000000000000       0x3a freertos/kernel/queue.o
 .debug_macro   0x0000000000000000       0x1f freertos/kernel/queue.o
 .debug_macro   0x0000000000000000       0x12 freertos/kernel/queue.o
 .debug_macro   0x0000000000000000     0x10d4 freertos/kernel/queue.o
 .debug_macro   0x0000000000000000       0xc3 freertos/kernel/queue.o
 .debug_macro   0x0000000000000000      0x161 freertos/kernel/queue.o
 .debug_macro   0x0000000000000000       0x80 freertos/kernel/queue.o
 .group         0x0000000000000000        0xc freertos/kernel/list.o
 .group         0x0000000000000000        0xc freertos/kernel/list.o
 .group         0x0000000000000000        0xc freertos/kernel/list.o
 .group         0x0000000000000000        0xc freertos/kernel/list.o
 .group         0x0000000000000000        0xc freertos/kernel/list.o
 .group         0x0000000000000000        0xc freertos/kernel/list.o
 .group         0x0000000000000000        0xc freertos/kernel/list.o
 .group         0x0000000000000000        0xc freertos/kernel/list.o
 .group         0x0000000000000000        0xc freertos/kernel/list.o
 .group         0x0000000000000000        0xc freertos/kernel/list.o
 .group         0x0000000000000000        0xc freertos/kernel/list.o
 .group         0x0000000000000000        0xc freertos/kernel/list.o
 .group         0x0000000000000000        0xc freertos/kernel/list.o
 .group         0x0000000000000000        0xc freertos/kernel/list.o
 .group         0x0000000000000000        0xc freertos/kernel/list.o
 .group         0x0000000000000000        0xc freertos/kernel/list.o
 .group         0x0000000000000000        0xc freertos/kernel/list.o
 .group         0x0000000000000000        0xc freertos/kernel/list.o
 .group         0x0000000000000000        0xc freertos/kernel/list.o
 .group         0x0000000000000000        0xc freertos/kernel/list.o
 .group         0x0000000000000000        0xc freertos/kernel/list.o
 .group         0x0000000000000000        0xc freertos/kernel/list.o
 .group         0x0000000000000000        0xc freertos/kernel/list.o
 .group         0x0000000000000000        0xc freertos/kernel/list.o
 .group         0x0000000000000000        0xc freertos/kernel/list.o
 .group         0x0000000000000000        0xc freertos/kernel/list.o
 .group         0x0000000000000000        0xc freertos/kernel/list.o
 .group         0x0000000000000000        0xc freertos/kernel/list.o
 .group         0x0000000000000000        0xc freertos/kernel/list.o
 .group         0x0000000000000000        0xc freertos/kernel/list.o
 .group         0x0000000000000000        0xc freertos/kernel/list.o
 .data          0x0000000000000000        0x0 freertos/kernel/list.o
 .bss           0x0000000000000000        0x0 freertos/kernel/list.o
 .debug_macro   0x0000000000000000      0xa5a freertos/kernel/list.o
 .debug_macro   0x0000000000000000       0x18 freertos/kernel/list.o
 .debug_macro   0x0000000000000000       0x22 freertos/kernel/list.o
 .debug_macro   0x0000000000000000       0x52 freertos/kernel/list.o
 .debug_macro   0x0000000000000000       0x94 freertos/kernel/list.o
 .debug_macro   0x0000000000000000       0x35 freertos/kernel/list.o
 .debug_macro   0x0000000000000000       0x34 freertos/kernel/list.o
 .debug_macro   0x0000000000000000       0x16 freertos/kernel/list.o
 .debug_macro   0x0000000000000000      0x10e freertos/kernel/list.o
 .debug_macro   0x0000000000000000       0x8d freertos/kernel/list.o
 .debug_macro   0x0000000000000000       0x16 freertos/kernel/list.o
 .debug_macro   0x0000000000000000       0x43 freertos/kernel/list.o
 .debug_macro   0x0000000000000000       0x57 freertos/kernel/list.o
 .debug_macro   0x0000000000000000       0x34 freertos/kernel/list.o
 .debug_macro   0x0000000000000000       0x10 freertos/kernel/list.o
 .debug_macro   0x0000000000000000       0x52 freertos/kernel/list.o
 .debug_macro   0x0000000000000000      0x182 freertos/kernel/list.o
 .debug_macro   0x0000000000000000      0x333 freertos/kernel/list.o
 .debug_macro   0x0000000000000000       0x16 freertos/kernel/list.o
 .debug_macro   0x0000000000000000       0x29 freertos/kernel/list.o
 .debug_macro   0x0000000000000000      0x34e freertos/kernel/list.o
 .debug_macro   0x0000000000000000       0x16 freertos/kernel/list.o
 .debug_macro   0x0000000000000000      0x124 freertos/kernel/list.o
 .debug_macro   0x0000000000000000       0x34 freertos/kernel/list.o
 .debug_macro   0x0000000000000000      0x182 freertos/kernel/list.o
 .debug_macro   0x0000000000000000       0xe0 freertos/kernel/list.o
 .debug_macro   0x0000000000000000       0x3a freertos/kernel/list.o
 .debug_macro   0x0000000000000000       0x1f freertos/kernel/list.o
 .debug_macro   0x0000000000000000       0x12 freertos/kernel/list.o
 .debug_macro   0x0000000000000000     0x10d4 freertos/kernel/list.o
 .debug_macro   0x0000000000000000       0xc3 freertos/kernel/list.o
 .group         0x0000000000000000        0xc freertos/kernel/timers.o
 .group         0x0000000000000000        0xc freertos/kernel/timers.o
 .group         0x0000000000000000        0xc freertos/kernel/timers.o
 .group         0x0000000000000000        0xc freertos/kernel/timers.o
 .group         0x0000000000000000        0xc freertos/kernel/timers.o
 .group         0x0000000000000000        0xc freertos/kernel/timers.o
 .group         0x0000000000000000        0xc freertos/kernel/timers.o
 .group         0x0000000000000000        0xc freertos/kernel/timers.o
 .group         0x0000000000000000        0xc freertos/kernel/timers.o
 .group         0x0000000000000000        0xc freertos/kernel/timers.o
 .group         0x0000000000000000        0xc freertos/kernel/timers.o
 .group         0x0000000000000000        0xc freertos/kernel/timers.o
 .group         0x0000000000000000        0xc freertos/kernel/timers.o
 .group         0x0000000000000000        0xc freertos/kernel/timers.o
 .group         0x0000000000000000        0xc freertos/kernel/timers.o
 .group         0x0000000000000000        0xc freertos/kernel/timers.o
 .group         0x0000000000000000        0xc freertos/kernel/timers.o
 .group         0x0000000000000000        0xc freertos/kernel/timers.o
 .group         0x0000000000000000        0xc freertos/kernel/timers.o
 .group         0x0000000000000000        0xc freertos/kernel/timers.o
 .group         0x0000000000000000        0xc freertos/kernel/timers.o
 .group         0x0000000000000000        0xc freertos/kernel/timers.o
 .group         0x0000000000000000        0xc freertos/kernel/timers.o
 .group         0x0000000000000000        0xc freertos/kernel/timers.o
 .group         0x0000000000000000        0xc freertos/kernel/timers.o
 .group         0x0000000000000000        0xc freertos/kernel/timers.o
 .group         0x0000000000000000        0xc freertos/kernel/timers.o
 .group         0x0000000000000000        0xc freertos/kernel/timers.o
 .group         0x0000000000000000        0xc freertos/kernel/timers.o
 .group         0x0000000000000000        0xc freertos/kernel/timers.o
 .group         0x0000000000000000        0xc freertos/kernel/timers.o
 .group         0x0000000000000000        0xc freertos/kernel/timers.o
 .group         0x0000000000000000        0xc freertos/kernel/timers.o
 .group         0x0000000000000000        0xc freertos/kernel/timers.o
 .data          0x0000000000000000        0x0 freertos/kernel/timers.o
 .debug_macro   0x0000000000000000      0xa5a freertos/kernel/timers.o
 .debug_macro   0x0000000000000000       0x18 freertos/kernel/timers.o
 .debug_macro   0x0000000000000000       0x22 freertos/kernel/timers.o
 .debug_macro   0x0000000000000000       0x52 freertos/kernel/timers.o
 .debug_macro   0x0000000000000000       0x94 freertos/kernel/timers.o
 .debug_macro   0x0000000000000000       0x35 freertos/kernel/timers.o
 .debug_macro   0x0000000000000000       0x34 freertos/kernel/timers.o
 .debug_macro   0x0000000000000000       0x16 freertos/kernel/timers.o
 .debug_macro   0x0000000000000000      0x10e freertos/kernel/timers.o
 .debug_macro   0x0000000000000000       0x8d freertos/kernel/timers.o
 .debug_macro   0x0000000000000000       0x16 freertos/kernel/timers.o
 .debug_macro   0x0000000000000000       0x43 freertos/kernel/timers.o
 .debug_macro   0x0000000000000000       0x57 freertos/kernel/timers.o
 .debug_macro   0x0000000000000000       0x34 freertos/kernel/timers.o
 .debug_macro   0x0000000000000000       0x10 freertos/kernel/timers.o
 .debug_macro   0x0000000000000000       0x52 freertos/kernel/timers.o
 .debug_macro   0x0000000000000000      0x182 freertos/kernel/timers.o
 .debug_macro   0x0000000000000000      0x333 freertos/kernel/timers.o
 .debug_macro   0x0000000000000000       0x16 freertos/kernel/timers.o
 .debug_macro   0x0000000000000000       0x29 freertos/kernel/timers.o
 .debug_macro   0x0000000000000000      0x34e freertos/kernel/timers.o
 .debug_macro   0x0000000000000000       0x16 freertos/kernel/timers.o
 .debug_macro   0x0000000000000000      0x124 freertos/kernel/timers.o
 .debug_macro   0x0000000000000000       0x34 freertos/kernel/timers.o
 .debug_macro   0x0000000000000000      0x182 freertos/kernel/timers.o
 .debug_macro   0x0000000000000000       0xe0 freertos/kernel/timers.o
 .debug_macro   0x0000000000000000       0x3a freertos/kernel/timers.o
 .debug_macro   0x0000000000000000       0x1f freertos/kernel/timers.o
 .debug_macro   0x0000000000000000       0x12 freertos/kernel/timers.o
 .debug_macro   0x0000000000000000     0x10d4 freertos/kernel/timers.o
 .debug_macro   0x0000000000000000       0xc3 freertos/kernel/timers.o
 .debug_macro   0x0000000000000000      0x161 freertos/kernel/timers.o
 .debug_macro   0x0000000000000000       0x80 freertos/kernel/timers.o
 .group         0x0000000000000000        0xc freertos/kernel/event_groups.o
 .group         0x0000000000000000        0xc freertos/kernel/event_groups.o
 .group         0x0000000000000000        0xc freertos/kernel/event_groups.o
 .group         0x0000000000000000        0xc freertos/kernel/event_groups.o
 .group         0x0000000000000000        0xc freertos/kernel/event_groups.o
 .group         0x0000000000000000        0xc freertos/kernel/event_groups.o
 .group         0x0000000000000000        0xc freertos/kernel/event_groups.o
 .group         0x0000000000000000        0xc freertos/kernel/event_groups.o
 .group         0x0000000000000000        0xc freertos/kernel/event_groups.o
 .group         0x0000000000000000        0xc freertos/kernel/event_groups.o
 .group         0x0000000000000000        0xc freertos/kernel/event_groups.o
 .group         0x0000000000000000        0xc freertos/kernel/event_groups.o
 .group         0x0000000000000000        0xc freertos/kernel/event_groups.o
 .group         0x0000000000000000        0xc freertos/kernel/event_groups.o
 .group         0x0000000000000000        0xc freertos/kernel/event_groups.o
 .group         0x0000000000000000        0xc freertos/kernel/event_groups.o
 .group         0x0000000000000000        0xc freertos/kernel/event_groups.o
 .group         0x0000000000000000        0xc freertos/kernel/event_groups.o
 .group         0x0000000000000000        0xc freertos/kernel/event_groups.o
 .group         0x0000000000000000        0xc freertos/kernel/event_groups.o
 .group         0x0000000000000000        0xc freertos/kernel/event_groups.o
 .group         0x0000000000000000        0xc freertos/kernel/event_groups.o
 .group         0x0000000000000000        0xc freertos/kernel/event_groups.o
 .group         0x0000000000000000        0xc freertos/kernel/event_groups.o
 .group         0x0000000000000000        0xc freertos/kernel/event_groups.o
 .group         0x0000000000000000        0xc freertos/kernel/event_groups.o
 .group         0x0000000000000000        0xc freertos/kernel/event_groups.o
 .group         0x0000000000000000        0xc freertos/kernel/event_groups.o
 .group         0x0000000000000000        0xc freertos/kernel/event_groups.o
 .group         0x0000000000000000        0xc freertos/kernel/event_groups.o
 .group         0x0000000000000000        0xc freertos/kernel/event_groups.o
 .group         0x0000000000000000        0xc freertos/kernel/event_groups.o
 .group         0x0000000000000000        0xc freertos/kernel/event_groups.o
 .group         0x0000000000000000        0xc freertos/kernel/event_groups.o
 .text          0x0000000000000000      0x444 freertos/kernel/event_groups.o
 .data          0x0000000000000000        0x0 freertos/kernel/event_groups.o
 .bss           0x0000000000000000        0x0 freertos/kernel/event_groups.o
 .debug_info    0x0000000000000000      0x701 freertos/kernel/event_groups.o
 .debug_abbrev  0x0000000000000000      0x1ce freertos/kernel/event_groups.o
 .debug_aranges
                0x0000000000000000       0x20 freertos/kernel/event_groups.o
 .debug_macro   0x0000000000000000      0x1a6 freertos/kernel/event_groups.o
 .debug_macro   0x0000000000000000      0xa5a freertos/kernel/event_groups.o
 .debug_macro   0x0000000000000000       0x18 freertos/kernel/event_groups.o
 .debug_macro   0x0000000000000000       0x22 freertos/kernel/event_groups.o
 .debug_macro   0x0000000000000000       0x52 freertos/kernel/event_groups.o
 .debug_macro   0x0000000000000000       0x94 freertos/kernel/event_groups.o
 .debug_macro   0x0000000000000000       0x35 freertos/kernel/event_groups.o
 .debug_macro   0x0000000000000000       0x34 freertos/kernel/event_groups.o
 .debug_macro   0x0000000000000000       0x16 freertos/kernel/event_groups.o
 .debug_macro   0x0000000000000000      0x10e freertos/kernel/event_groups.o
 .debug_macro   0x0000000000000000       0x8d freertos/kernel/event_groups.o
 .debug_macro   0x0000000000000000       0x16 freertos/kernel/event_groups.o
 .debug_macro   0x0000000000000000       0x43 freertos/kernel/event_groups.o
 .debug_macro   0x0000000000000000       0x57 freertos/kernel/event_groups.o
 .debug_macro   0x0000000000000000       0x34 freertos/kernel/event_groups.o
 .debug_macro   0x0000000000000000       0x10 freertos/kernel/event_groups.o
 .debug_macro   0x0000000000000000       0x52 freertos/kernel/event_groups.o
 .debug_macro   0x0000000000000000      0x182 freertos/kernel/event_groups.o
 .debug_macro   0x0000000000000000      0x333 freertos/kernel/event_groups.o
 .debug_macro   0x0000000000000000       0x16 freertos/kernel/event_groups.o
 .debug_macro   0x0000000000000000       0x29 freertos/kernel/event_groups.o
 .debug_macro   0x0000000000000000      0x34e freertos/kernel/event_groups.o
 .debug_macro   0x0000000000000000       0x16 freertos/kernel/event_groups.o
 .debug_macro   0x0000000000000000      0x124 freertos/kernel/event_groups.o
 .debug_macro   0x0000000000000000       0x34 freertos/kernel/event_groups.o
 .debug_macro   0x0000000000000000      0x182 freertos/kernel/event_groups.o
 .debug_macro   0x0000000000000000       0xe0 freertos/kernel/event_groups.o
 .debug_macro   0x0000000000000000       0x3a freertos/kernel/event_groups.o
 .debug_macro   0x0000000000000000       0x1f freertos/kernel/event_groups.o
 .debug_macro   0x0000000000000000       0x12 freertos/kernel/event_groups.o
 .debug_macro   0x0000000000000000     0x10d4 freertos/kernel/event_groups.o
 .debug_macro   0x0000000000000000       0xc3 freertos/kernel/event_groups.o
 .debug_macro   0x0000000000000000      0x161 freertos/kernel/event_groups.o
 .debug_macro   0x0000000000000000       0x98 freertos/kernel/event_groups.o
 .debug_macro   0x0000000000000000       0x23 freertos/kernel/event_groups.o
 .debug_line    0x0000000000000000      0x4be freertos/kernel/event_groups.o
 .debug_str     0x0000000000000000    0x11e9f freertos/kernel/event_groups.o
 .comment       0x0000000000000000       0x34 freertos/kernel/event_groups.o
 .debug_frame   0x0000000000000000      0x180 freertos/kernel/event_groups.o
 .ARM.attributes
                0x0000000000000000       0x2d freertos/kernel/event_groups.o
 .group         0x0000000000000000        0xc freertos/kernel/stream_buffer.o
 .group         0x0000000000000000        0xc freertos/kernel/stream_buffer.o
 .group         0x0000000000000000        0xc freertos/kernel/stream_buffer.o
 .group         0x0000000000000000        0xc freertos/kernel/stream_buffer.o
 .group         0x0000000000000000        0xc freertos/kernel/stream_buffer.o
 .group         0x0000000000000000        0xc freertos/kernel/stream_buffer.o
 .group         0x0000000000000000        0xc freertos/kernel/stream_buffer.o
 .group         0x0000000000000000        0xc freertos/kernel/stream_buffer.o
 .group         0x0000000000000000        0xc freertos/kernel/stream_buffer.o
 .group         0x0000000000000000        0xc freertos/kernel/stream_buffer.o
 .group         0x0000000000000000        0xc freertos/kernel/stream_buffer.o
 .group         0x0000000000000000        0xc freertos/kernel/stream_buffer.o
 .group         0x0000000000000000        0xc freertos/kernel/stream_buffer.o
 .group         0x0000000000000000        0xc freertos/kernel/stream_buffer.o
 .group         0x0000000000000000        0xc freertos/kernel/stream_buffer.o
 .group         0x0000000000000000        0xc freertos/kernel/stream_buffer.o
 .group         0x0000000000000000        0xc freertos/kernel/stream_buffer.o
 .group         0x0000000000000000        0xc freertos/kernel/stream_buffer.o
 .group         0x0000000000000000        0xc freertos/kernel/stream_buffer.o
 .group         0x0000000000000000        0xc freertos/kernel/stream_buffer.o
 .group         0x0000000000000000        0xc freertos/kernel/stream_buffer.o
 .group         0x0000000000000000        0xc freertos/kernel/stream_buffer.o
 .group         0x0000000000000000        0xc freertos/kernel/stream_buffer.o
 .group         0x0000000000000000        0xc freertos/kernel/stream_buffer.o
 .group         0x0000000000000000        0xc freertos/kernel/stream_buffer.o
 .group         0x0000000000000000        0xc freertos/kernel/stream_buffer.o
 .group         0x0000000000000000        0xc freertos/kernel/stream_buffer.o
 .group         0x0000000000000000        0xc freertos/kernel/stream_buffer.o
 .group         0x0000000000000000        0xc freertos/kernel/stream_buffer.o
 .group         0x0000000000000000        0xc freertos/kernel/stream_buffer.o
 .group         0x0000000000000000        0xc freertos/kernel/stream_buffer.o
 .text          0x0000000000000000      0x9f8 freertos/kernel/stream_buffer.o
 .data          0x0000000000000000        0x0 freertos/kernel/stream_buffer.o
 .bss           0x0000000000000000        0x0 freertos/kernel/stream_buffer.o
 .debug_info    0x0000000000000000      0xe8d freertos/kernel/stream_buffer.o
 .debug_abbrev  0x0000000000000000      0x221 freertos/kernel/stream_buffer.o
 .debug_aranges
                0x0000000000000000       0x20 freertos/kernel/stream_buffer.o
 .debug_macro   0x0000000000000000      0x1d7 freertos/kernel/stream_buffer.o
 .debug_macro   0x0000000000000000      0xa5a freertos/kernel/stream_buffer.o
 .debug_macro   0x0000000000000000       0x22 freertos/kernel/stream_buffer.o
 .debug_macro   0x0000000000000000       0x52 freertos/kernel/stream_buffer.o
 .debug_macro   0x0000000000000000       0x18 freertos/kernel/stream_buffer.o
 .debug_macro   0x0000000000000000       0x94 freertos/kernel/stream_buffer.o
 .debug_macro   0x0000000000000000       0x35 freertos/kernel/stream_buffer.o
 .debug_macro   0x0000000000000000       0x34 freertos/kernel/stream_buffer.o
 .debug_macro   0x0000000000000000      0x174 freertos/kernel/stream_buffer.o
 .debug_macro   0x0000000000000000       0x16 freertos/kernel/stream_buffer.o
 .debug_macro   0x0000000000000000       0x43 freertos/kernel/stream_buffer.o
 .debug_macro   0x0000000000000000       0x57 freertos/kernel/stream_buffer.o
 .debug_macro   0x0000000000000000       0x34 freertos/kernel/stream_buffer.o
 .debug_macro   0x0000000000000000       0x10 freertos/kernel/stream_buffer.o
 .debug_macro   0x0000000000000000       0x52 freertos/kernel/stream_buffer.o
 .debug_macro   0x0000000000000000      0x182 freertos/kernel/stream_buffer.o
 .debug_macro   0x0000000000000000      0x333 freertos/kernel/stream_buffer.o
 .debug_macro   0x0000000000000000       0x10 freertos/kernel/stream_buffer.o
 .debug_macro   0x0000000000000000       0x35 freertos/kernel/stream_buffer.o
 .debug_macro   0x0000000000000000      0x34e freertos/kernel/stream_buffer.o
 .debug_macro   0x0000000000000000       0x16 freertos/kernel/stream_buffer.o
 .debug_macro   0x0000000000000000      0x124 freertos/kernel/stream_buffer.o
 .debug_macro   0x0000000000000000       0x34 freertos/kernel/stream_buffer.o
 .debug_macro   0x0000000000000000      0x182 freertos/kernel/stream_buffer.o
 .debug_macro   0x0000000000000000       0xe0 freertos/kernel/stream_buffer.o
 .debug_macro   0x0000000000000000       0x3a freertos/kernel/stream_buffer.o
 .debug_macro   0x0000000000000000       0x1f freertos/kernel/stream_buffer.o
 .debug_macro   0x0000000000000000       0x12 freertos/kernel/stream_buffer.o
 .debug_macro   0x0000000000000000     0x10d4 freertos/kernel/stream_buffer.o
 .debug_macro   0x0000000000000000       0xc3 freertos/kernel/stream_buffer.o
 .debug_macro   0x0000000000000000      0x161 freertos/kernel/stream_buffer.o
 .debug_macro   0x0000000000000000       0x38 freertos/kernel/stream_buffer.o
 .debug_line    0x0000000000000000      0x799 freertos/kernel/stream_buffer.o
 .debug_str     0x0000000000000000    0x12417 freertos/kernel/stream_buffer.o
 .comment       0x0000000000000000       0x34 freertos/kernel/stream_buffer.o
 .debug_frame   0x0000000000000000      0x3a0 freertos/kernel/stream_buffer.o
 .ARM.attributes
                0x0000000000000000       0x2d freertos/kernel/stream_buffer.o
 .group         0x0000000000000000        0xc freertos/portable/ARM_CM3/port.o
 .group         0x0000000000000000        0xc freertos/portable/ARM_CM3/port.o
 .group         0x0000000000000000        0xc freertos/portable/ARM_CM3/port.o
 .group         0x0000000000000000        0xc freertos/portable/ARM_CM3/port.o
 .group         0x0000000000000000        0xc freertos/portable/ARM_CM3/port.o
 .group         0x0000000000000000        0xc freertos/portable/ARM_CM3/port.o
 .group         0x0000000000000000        0xc freertos/portable/ARM_CM3/port.o
 .group         0x0000000000000000        0xc freertos/portable/ARM_CM3/port.o
 .group         0x0000000000000000        0xc freertos/portable/ARM_CM3/port.o
 .group         0x0000000000000000        0xc freertos/portable/ARM_CM3/port.o
 .group         0x0000000000000000        0xc freertos/portable/ARM_CM3/port.o
 .group         0x0000000000000000        0xc freertos/portable/ARM_CM3/port.o
 .group         0x0000000000000000        0xc freertos/portable/ARM_CM3/port.o
 .group         0x0000000000000000        0xc freertos/portable/ARM_CM3/port.o
 .bss           0x0000000000000000        0x0 freertos/portable/ARM_CM3/port.o
 .debug_macro   0x0000000000000000      0xa5a freertos/portable/ARM_CM3/port.o
 .debug_macro   0x0000000000000000      0x174 freertos/portable/ARM_CM3/port.o
 .debug_macro   0x0000000000000000      0x34e freertos/portable/ARM_CM3/port.o
 .debug_macro   0x0000000000000000       0x16 freertos/portable/ARM_CM3/port.o
 .debug_macro   0x0000000000000000      0x124 freertos/portable/ARM_CM3/port.o
 .debug_macro   0x0000000000000000       0x34 freertos/portable/ARM_CM3/port.o
 .debug_macro   0x0000000000000000      0x182 freertos/portable/ARM_CM3/port.o
 .debug_macro   0x0000000000000000       0xe0 freertos/portable/ARM_CM3/port.o
 .debug_macro   0x0000000000000000       0x3a freertos/portable/ARM_CM3/port.o
 .debug_macro   0x0000000000000000       0x1f freertos/portable/ARM_CM3/port.o
 .debug_macro   0x0000000000000000       0x12 freertos/portable/ARM_CM3/port.o
 .debug_macro   0x0000000000000000     0x10d4 freertos/portable/ARM_CM3/port.o
 .debug_macro   0x0000000000000000       0xc3 freertos/portable/ARM_CM3/port.o
 .debug_macro   0x0000000000000000      0x161 freertos/portable/ARM_CM3/port.o
 .group         0x0000000000000000        0xc freertos/portable/heap_4.o
 .group         0x0000000000000000        0xc freertos/portable/heap_4.o
 .group         0x0000000000000000        0xc freertos/portable/heap_4.o
 .group         0x0000000000000000        0xc freertos/portable/heap_4.o
 .group         0x0000000000000000        0xc freertos/portable/heap_4.o
 .group         0x0000000000000000        0xc freertos/portable/heap_4.o
 .group         0x0000000000000000        0xc freertos/portable/heap_4.o
 .group         0x0000000000000000        0xc freertos/portable/heap_4.o
 .group         0x0000000000000000        0xc freertos/portable/heap_4.o
 .group         0x0000000000000000        0xc freertos/portable/heap_4.o
 .group         0x0000000000000000        0xc freertos/portable/heap_4.o
 .group         0x0000000000000000        0xc freertos/portable/heap_4.o
 .group         0x0000000000000000        0xc freertos/portable/heap_4.o
 .group         0x0000000000000000        0xc freertos/portable/heap_4.o
 .group         0x0000000000000000        0xc freertos/portable/heap_4.o
 .group         0x0000000000000000        0xc freertos/portable/heap_4.o
 .group         0x0000000000000000        0xc freertos/portable/heap_4.o
 .group         0x0000000000000000        0xc freertos/portable/heap_4.o
 .group         0x0000000000000000        0xc freertos/portable/heap_4.o
 .group         0x0000000000000000        0xc freertos/portable/heap_4.o
 .group         0x0000000000000000        0xc freertos/portable/heap_4.o
 .group         0x0000000000000000        0xc freertos/portable/heap_4.o
 .group         0x0000000000000000        0xc freertos/portable/heap_4.o
 .group         0x0000000000000000        0xc freertos/portable/heap_4.o
 .group         0x0000000000000000        0xc freertos/portable/heap_4.o
 .group         0x0000000000000000        0xc freertos/portable/heap_4.o
 .group         0x0000000000000000        0xc freertos/portable/heap_4.o
 .group         0x0000000000000000        0xc freertos/portable/heap_4.o
 .group         0x0000000000000000        0xc freertos/portable/heap_4.o
 .group         0x0000000000000000        0xc freertos/portable/heap_4.o
 .group         0x0000000000000000        0xc freertos/portable/heap_4.o
 .group         0x0000000000000000        0xc freertos/portable/heap_4.o
 .group         0x0000000000000000        0xc freertos/portable/heap_4.o
 .group         0x0000000000000000        0xc freertos/portable/heap_4.o
 .data          0x0000000000000000        0x0 freertos/portable/heap_4.o
 .rodata        0x0000000000000000        0x4 freertos/portable/heap_4.o
 .debug_macro   0x0000000000000000      0xa5a freertos/portable/heap_4.o
 .debug_macro   0x0000000000000000       0x18 freertos/portable/heap_4.o
 .debug_macro   0x0000000000000000       0x22 freertos/portable/heap_4.o
 .debug_macro   0x0000000000000000       0x52 freertos/portable/heap_4.o
 .debug_macro   0x0000000000000000       0x94 freertos/portable/heap_4.o
 .debug_macro   0x0000000000000000       0x35 freertos/portable/heap_4.o
 .debug_macro   0x0000000000000000       0x34 freertos/portable/heap_4.o
 .debug_macro   0x0000000000000000       0x16 freertos/portable/heap_4.o
 .debug_macro   0x0000000000000000      0x10e freertos/portable/heap_4.o
 .debug_macro   0x0000000000000000       0x8d freertos/portable/heap_4.o
 .debug_macro   0x0000000000000000       0x16 freertos/portable/heap_4.o
 .debug_macro   0x0000000000000000       0x43 freertos/portable/heap_4.o
 .debug_macro   0x0000000000000000       0x57 freertos/portable/heap_4.o
 .debug_macro   0x0000000000000000       0x34 freertos/portable/heap_4.o
 .debug_macro   0x0000000000000000       0x10 freertos/portable/heap_4.o
 .debug_macro   0x0000000000000000       0x52 freertos/portable/heap_4.o
 .debug_macro   0x0000000000000000      0x182 freertos/portable/heap_4.o
 .debug_macro   0x0000000000000000      0x333 freertos/portable/heap_4.o
 .debug_macro   0x0000000000000000       0x16 freertos/portable/heap_4.o
 .debug_macro   0x0000000000000000       0x29 freertos/portable/heap_4.o
 .debug_macro   0x0000000000000000       0x16 freertos/portable/heap_4.o
 .debug_macro   0x0000000000000000       0x35 freertos/portable/heap_4.o
 .debug_macro   0x0000000000000000      0x34e freertos/portable/heap_4.o
 .debug_macro   0x0000000000000000       0x16 freertos/portable/heap_4.o
 .debug_macro   0x0000000000000000      0x124 freertos/portable/heap_4.o
 .debug_macro   0x0000000000000000       0x34 freertos/portable/heap_4.o
 .debug_macro   0x0000000000000000      0x182 freertos/portable/heap_4.o
 .debug_macro   0x0000000000000000       0xe0 freertos/portable/heap_4.o
 .debug_macro   0x0000000000000000       0x3a freertos/portable/heap_4.o
 .debug_macro   0x0000000000000000       0x1f freertos/portable/heap_4.o
 .debug_macro   0x0000000000000000       0x12 freertos/portable/heap_4.o
 .debug_macro   0x0000000000000000     0x10d4 freertos/portable/heap_4.o
 .debug_macro   0x0000000000000000       0xc3 freertos/portable/heap_4.o
 .debug_macro   0x0000000000000000      0x161 freertos/portable/heap_4.o
 .data          0x0000000000000000        0x0 /usr/lib/gcc/arm-none-eabi/10.3.1/../../../arm-none-eabi/lib/thumb/v7-m/nofp/libc_nano.a(lib_a-memcpy.o)
 .bss           0x0000000000000000        0x0 /usr/lib/gcc/arm-none-eabi/10.3.1/../../../arm-none-eabi/lib/thumb/v7-m/nofp/libc_nano.a(lib_a-memcpy.o)
 .data          0x0000000000000000        0x0 /usr/lib/gcc/arm-none-eabi/10.3.1/../../../arm-none-eabi/lib/thumb/v7-m/nofp/libc_nano.a(lib_a-memset.o)
 .bss           0x0000000000000000        0x0 /usr/lib/gcc/arm-none-eabi/10.3.1/../../../arm-none-eabi/lib/thumb/v7-m/nofp/libc_nano.a(lib_a-memset.o)

Memory Configuration

Name             Origin             Length             Attributes
FLASH            0x0000000000000000 0x0000000000400000 xr
SRAM             0x0000000020000000 0x0000000000400000 xrw
*default*        0x0000000000000000 0xffffffffffffffff

Linker script and memory map

LOAD src/startup.o
LOAD src/uart.o
LOAD src/i2c.o
LOAD src/hdc1080.o
LOAD src/main.o
LOAD freertos/kernel/tasks.o
LOAD freertos/kernel/queue.o
LOAD freertos/kernel/list.o
LOAD freertos/kernel/timers.o
LOAD freertos/kernel/event_groups.o
LOAD freertos/kernel/stream_buffer.o
LOAD freertos/portable/ARM_CM3/port.o
LOAD freertos/portable/heap_4.o
START GROUP
LOAD /usr/lib/gcc/arm-none-eabi/10.3.1/thumb/v7-m/nofp/libgcc.a
LOAD /usr/lib/gcc/arm-none-eabi/10.3.1/../../../arm-none-eabi/lib/thumb/v7-m/nofp/libc_nano.a
END GROUP
START GROUP
LOAD /usr/lib/gcc/arm-none-eabi/10.3.1/thumb/v7-m/nofp/libgcc.a
LOAD /usr/lib/gcc/arm-none-eabi/10.3.1/../../../arm-none-eabi/lib/thumb/v7-m/nofp/libc_nano.a
END GROUP

.text           0x0000000000000000     0x5618
 *(.vector_table)
 .vector_table  0x0000000000000000       0x40 src/startup.o
                0x0000000000000000                vector_table
 *(.text*)
 .text          0x0000000000000040       0x74 src/startup.o
                0x0000000000000052                Default_Handler
                0x0000000000000058                Reset_Handler
 .text          0x00000000000000b4      0x2dc src/uart.o
                0x00000000000000b4                uart_init
                0x00000000000000d4                uart_putc
                0x0000000000000104                uart_puts
                0x00000000000001e4                uart_printf
 .text          0x0000000000000390      0x1a8 src/i2c.o
                0x00000000000003ac                i2c_init
                0x00000000000003c8                i2c_write
                0x0000000000000448                i2c_read
                0x00000000000004ec                i2c_write_read
 .text          0x0000000000000538      0x104 src/hdc1080.o
                0x0000000000000538                hdc1080_init
                0x00000000000005bc                hdc1080_read
 .text          0x000000000000063c      0x27c src/main.o
                0x000000000000078c                vApplicationMallocFailedHook
                0x000000000000079c                vApplicationStackOverflowHook
                0x00000000000007b4                vApplicationIdleHook
                0x00000000000007c0                main
 .text          0x00000000000008b8     0x27b4 freertos/kernel/tasks.o
                0x0000000000000930                xTaskCreate
                0x0000000000000b80                vTaskDelete
                0x0000000000000ca0                xTaskDelayUntil
                0x0000000000000d44                vTaskDelay
                0x0000000000000d8c                uxTaskPriorityGet
                0x0000000000000dc0                uxTaskPriorityGetFromISR
                0x0000000000000e18                uxTaskBasePriorityGet
                0x0000000000000e4c                uxTaskBasePriorityGetFromISR
                0x0000000000000ea4                vTaskPrioritySet
                0x000000000000103c                vTaskSuspend
                0x00000000000011c8                vTaskResume
                0x00000000000012bc                xTaskResumeFromISR
                0x0000000000001488                vTaskStartScheduler
                0x00000000000014f0                vTaskEndScheduler
                0x0000000000001554                vTaskSuspendAll
                0x0000000000001570                xTaskResumeAll
                0x0000000000001760                xTaskGetTickCount
                0x000000000000177c                xTaskGetTickCountFromISR
                0x000000000000179c                uxTaskGetNumberOfTasks
                0x00000000000017b0                pcTaskGetName
                0x00000000000017dc                xTaskCatchUpTicks
                0x0000000000001810                xTaskIncrementTick
                0x0000000000001a20                vTaskSwitchContext
                0x0000000000001b0c                vTaskPlaceOnEventList
                0x0000000000001b38                vTaskPlaceOnUnorderedEventList
                0x0000000000001ba8                vTaskPlaceOnEventListRestricted
                0x0000000000001c18                xTaskRemoveFromEventList
                0x0000000000001dac                vTaskRemoveFromUnorderedEventList
                0x0000000000001ef0                vTaskSetTimeOutState
                0x0000000000001f20                vTaskInternalSetTimeOutState
                0x0000000000001f4c                xTaskCheckForTimeOut
                0x0000000000001fe0                vTaskMissedYield
                0x000000000000213c                uxTaskGetStackHighWaterMark
                0x00000000000021c4                xTaskGetCurrentTaskHandle
                0x00000000000021e0                xTaskGetCurrentTaskHandleForCore
                0x0000000000002210                xTaskGetSchedulerState
                0x000000000000224c                xTaskPriorityInherit
                0x000000000000238c                xTaskPriorityDisinherit
                0x0000000000002494                vTaskPriorityDisinheritAfterTimeout
                0x00000000000025c4                uxTaskResetEventItemValue
                0x00000000000025f4                pvTaskIncrementMutexHeldCount
                0x0000000000002620                ulTaskGenericNotifyTake
                0x0000000000002710                xTaskGenericNotifyWait
                0x0000000000002834                xTaskGenericNotify
                0x0000000000002a08                xTaskGenericNotifyFromISR
                0x0000000000002c54                vTaskGenericNotifyGiveFromISR
                0x0000000000002e10                xTaskGenericNotifyStateClear
                0x0000000000002e68                ulTaskGenericNotifyValueClear
                0x0000000000002fcc                vTaskResetState
 .text          0x000000000000306c      0xfe0 freertos/kernel/queue.o
                0x000000000000306c                xQueueGenericReset
                0x0000000000003154                xQueueGenericCreate
                0x0000000000003244                xQueueCreateMutex
                0x0000000000003274                xQueueGiveMutexRecursive
                0x00000000000032c0                xQueueTakeMutexRecursive
                0x0000000000003310                xQueueCreateCountingSemaphore
                0x000000000000334e                xQueueGenericSend
                0x00000000000034a4                xQueueGenericSendFromISR
                0x000000000000356e                xQueueGiveFromISR
                0x0000000000003626                xQueueReceive
                0x000000000000376c                xQueueSemaphoreTake
                0x00000000000038fc                xQueuePeek
                0x0000000000003a44                xQueueReceiveFromISR
                0x0000000000003b06                xQueuePeekFromISR
                0x0000000000003b6c                uxQueueMessagesWaiting
                0x0000000000003b8c                uxQueueSpacesAvailable
                0x0000000000003bb6                uxQueueMessagesWaitingFromISR
                0x0000000000003bd4                vQueueDelete
                0x0000000000003bf4                uxQueueGetQueueItemSize
                0x0000000000003c0a                uxQueueGetQueueLength
                0x0000000000003e3e                xQueueIsQueueEmptyFromISR
                0x0000000000003e98                xQueueIsQueueFullFromISR
                0x0000000000003ec6                vQueueAddToRegistry
                0x0000000000003f44                pcQueueGetName
                0x0000000000003f90                vQueueUnregisterQueue
                0x0000000000003fe4                vQueueWaitForMessageRestricted
 .text          0x000000000000404c      0x15e freertos/kernel/list.o
                0x000000000000404c                vListInitialise
                0x000000000000408a                vListInitialiseItem
                0x00000000000040a2                vListInsertEnd
                0x00000000000040e8                vListInsert
                0x0000000000004158                uxListRemove
 *fill*         0x00000000000041aa        0x2 
 .text          0x00000000000041ac      0x7d8 freertos/kernel/timers.o
                0x00000000000041ac                xTimerCreateTimerTask
                0x00000000000041f4                xTimerCreate
                0x000000000000428a                xTimerGenericCommandFromTask
                0x00000000000042fc                xTimerGenericCommandFromISR
                0x0000000000004350                xTimerGetTimerDaemonTaskHandle
                0x0000000000004364                xTimerGetPeriod
                0x000000000000437e                vTimerSetReloadMode
                0x00000000000043c8                xTimerGetReloadMode
                0x00000000000043fe                uxTimerGetReloadMode
                0x000000000000441a                xTimerGetExpiryTime
                0x0000000000004438                pcTimerGetName
                0x00000000000048e4                xTimerIsTimerActive
                0x000000000000491a                pvTimerGetTimerID
                0x000000000000493e                vTimerSetTimerID
                0x0000000000004962                vTimerResetState
 .text          0x0000000000004984      0x260 freertos/portable/ARM_CM3/port.o
                0x0000000000004984                pxPortInitialiseStack
                0x0000000000004a0e                SVC_Handler
                0x0000000000004a56                xPortStartScheduler
                0x0000000000004ab0                vPortEndScheduler
                0x0000000000004abc                vPortEnterCritical
                0x0000000000004af0                vPortExitCritical
                0x0000000000004b24                PendSV_Handler
                0x0000000000004b6a                SysTick_Handler
                0x0000000000004bb0                vPortSetupTimerInterrupt
 .text          0x0000000000004be4      0x4fc freertos/portable/heap_4.o
                0x0000000000004be4                pvPortMalloc
                0x0000000000004d54                vPortFree
                0x0000000000004dd0                xPortGetFreeHeapSize
                0x0000000000004de4                xPortGetMinimumEverFreeHeapSize
                0x0000000000004df8                xPortResetHeapMinimumEverFreeHeapSize
                0x0000000000004e14                vPortInitialiseBlocks
                0x0000000000004e20                pvPortCalloc
                0x0000000000004fe4                vPortGetHeapStats
                0x00000000000050a0                vPortHeapResetState
 .text          0x00000000000050e0       0xec /usr/lib/gcc/arm-none-eabi/10.3.1/../../../arm-none-eabi/lib/thumb/v7-m/nofp/libc_nano.a(lib_a-memcpy.o)
                0x00000000000050e0                memcpy
 .text          0x00000000000051cc       0xa4 /usr/lib/gcc/arm-none-eabi/10.3.1/../../../arm-none-eabi/lib/thumb/v7-m/nofp/libc_nano.a(lib_a-memset.o)
                0x00000000000051cc                memset
 *(.rodata*)
 .rodata        0x0000000000005270       0x11 src/uart.o
 *fill*         0x0000000000005281        0x3 
 .rodata        0x0000000000005284       0x1e src/i2c.o
 *fill*         0x00000000000052a2        0x2 
 .rodata        0x00000000000052a4       0xa1 src/hdc1080.o
 *fill*         0x0000000000005345        0x3 
 .rodata        0x0000000000005348      0x2b8 src/main.o
 .rodata        0x0000000000005600        0x5 freertos/kernel/tasks.o
 *fill*         0x0000000000005605        0x3 
 .rodata        0x0000000000005608        0xd freertos/kernel/timers.o
                0x0000000000005618                . = ALIGN (0x4)
 *fill*         0x0000000000005615        0x3 
                0x0000000000005618                _etext = .

.glue_7         0x0000000000005618        0x0
 .glue_7        0x0000000000005618        0x0 linker stubs

.glue_7t        0x0000000000005618        0x0
 .glue_7t       0x0000000000005618        0x0 linker stubs

.vfp11_veneer   0x0000000000005618        0x0
 .vfp11_veneer  0x0000000000005618        0x0 linker stubs

.v4_bx          0x0000000000005618        0x0
 .v4_bx         0x0000000000005618        0x0 linker stubs

.iplt           0x0000000000005618        0x0
 .iplt          0x0000000000005618        0x0 src/startup.o

.rel.dyn        0x0000000000005618        0x0
 .rel.iplt      0x0000000000005618        0x0 src/startup.o

.data           0x0000000020000000        0x8 load address 0x0000000000005618
                0x0000000020000000                _sdata = .
 *(.data*)
 .data          0x0000000020000000        0x4 freertos/kernel/tasks.o
 .data          0x0000000020000004        0x4 freertos/portable/ARM_CM3/port.o
                0x0000000020000008                . = ALIGN (0x4)
                0x0000000020000008                _edata = .

.igot.plt       0x0000000020000008        0x0 load address 0x0000000000005620
 .igot.plt      0x0000000020000008        0x0 src/startup.o

.bss            0x0000000020000008     0x81a4 load address 0x0000000000005620
                0x0000000020000008                _sbss = .
 *(.bss*)
 .bss           0x0000000020000008        0x8 src/main.o
 .bss           0x0000000020000010      0x104 freertos/kernel/tasks.o
                0x0000000020000010                pxCurrentTCB
 .bss           0x0000000020000114       0x40 freertos/kernel/queue.o
                0x0000000020000114                xQueueRegistry
 .bss           0x0000000020000154       0x3c freertos/kernel/timers.o
 .bss           0x0000000020000190     0x801c freertos/portable/heap_4.o
 *(COMMON)
                0x00000000200081ac                . = ALIGN (0x4)
                0x00000000200081ac                _ebss = .
                0x0000000020400000                _stack_top = (ORIGIN (SRAM) + LENGTH (SRAM))
OUTPUT(hdc1080_rtos.elf elf32-littlearm)
LOAD linker stubs

.debug_info     0x0000000000000000     0x5309
 .debug_info    0x0000000000000000      0x169 src/startup.o
 .debug_info    0x0000000000000169      0x219 src/uart.o
 .debug_info    0x0000000000000382      0x244 src/i2c.o
 .debug_info    0x00000000000005c6      0x19f src/hdc1080.o
 .debug_info    0x0000000000000765      0x2ba src/main.o
 .debug_info    0x0000000000000a1f     0x1f8a freertos/kernel/tasks.o
 .debug_info    0x00000000000029a9     0x126e freertos/kernel/queue.o
 .debug_info    0x0000000000003c17      0x2c0 freertos/kernel/list.o
 .debug_info    0x0000000000003ed7      0xb3e freertos/kernel/timers.o
 .debug_info    0x0000000000004a15      0x30b freertos/portable/ARM_CM3/port.o
 .debug_info    0x0000000000004d20      0x48c freertos/portable/heap_4.o
 .debug_info    0x00000000000051ac       0x26 /usr/lib/gcc/arm-none-eabi/10.3.1/../../../arm-none-eabi/lib/thumb/v7-m/nofp/libc_nano.a(lib_a-memcpy.o)
 .debug_info    0x00000000000051d2      0x137 /usr/lib/gcc/arm-none-eabi/10.3.1/../../../arm-none-eabi/lib/thumb/v7-m/nofp/libc_nano.a(lib_a-memset.o)

.debug_abbrev   0x0000000000000000     0x11e1
 .debug_abbrev  0x0000000000000000       0xc4 src/startup.o
 .debug_abbrev  0x00000000000000c4      0x13f src/uart.o
 .debug_abbrev  0x0000000000000203      0x112 src/i2c.o
 .debug_abbrev  0x0000000000000315       0xcf src/hdc1080.o
 .debug_abbrev  0x00000000000003e4      0x14f src/main.o
 .debug_abbrev  0x0000000000000533      0x2ef freertos/kernel/tasks.o
 .debug_abbrev  0x0000000000000822      0x265 freertos/kernel/queue.o
 .debug_abbrev  0x0000000000000a87       0xeb freertos/kernel/list.o
 .debug_abbrev  0x0000000000000b72      0x204 freertos/kernel/timers.o
 .debug_abbrev  0x0000000000000d76      0x210 freertos/portable/ARM_CM3/port.o
 .debug_abbrev  0x0000000000000f86      0x193 freertos/portable/heap_4.o
 .debug_abbrev  0x0000000000001119       0x14 /usr/lib/gcc/arm-none-eabi/10.3.1/../../../arm-none-eabi/lib/thumb/v7-m/nofp/libc_nano.a(lib_a-memcpy.o)
 .debug_abbrev  0x000000000000112d       0xb4 /usr/lib/gcc/arm-none-eabi/10.3.1/../../../arm-none-eabi/lib/thumb/v7-m/nofp/libc_nano.a(lib_a-memset.o)

.debug_aranges  0x0000000000000000      0x1a0
 .debug_aranges
                0x0000000000000000       0x20 src/startup.o
 .debug_aranges
                0x0000000000000020       0x20 src/uart.o
 .debug_aranges
                0x0000000000000040       0x20 src/i2c.o
 .debug_aranges
                0x0000000000000060       0x20 src/hdc1080.o
 .debug_aranges
                0x0000000000000080       0x20 src/main.o
 .debug_aranges
                0x00000000000000a0       0x20 freertos/kernel/tasks.o
 .debug_aranges
                0x00000000000000c0       0x20 freertos/kernel/queue.o
 .debug_aranges
                0x00000000000000e0       0x20 freertos/kernel/list.o
 .debug_aranges
                0x0000000000000100       0x20 freertos/kernel/timers.o
 .debug_aranges
                0x0000000000000120       0x20 freertos/portable/ARM_CM3/port.o
 .debug_aranges
                0x0000000000000140       0x20 freertos/portable/heap_4.o
 .debug_aranges
                0x0000000000000160       0x20 /usr/lib/gcc/arm-none-eabi/10.3.1/../../../arm-none-eabi/lib/thumb/v7-m/nofp/libc_nano.a(lib_a-memcpy.o)
 .debug_aranges
                0x0000000000000180       0x20 /usr/lib/gcc/arm-none-eabi/10.3.1/../../../arm-none-eabi/lib/thumb/v7-m/nofp/libc_nano.a(lib_a-memset.o)

.debug_macro    0x0000000000000000     0x40fe
 .debug_macro   0x0000000000000000       0x1a src/startup.o
 .debug_macro   0x000000000000001a      0xa5a src/startup.o
 .debug_macro   0x0000000000000a74      0x34e src/startup.o
 .debug_macro   0x0000000000000dc2       0x32 src/uart.o
 .debug_macro   0x0000000000000df4       0x28 src/uart.o
 .debug_macro   0x0000000000000e1c       0x58 src/uart.o
 .debug_macro   0x0000000000000e74       0x32 src/i2c.o
 .debug_macro   0x0000000000000ea6       0x46 src/i2c.o
 .debug_macro   0x0000000000000eec       0x2e src/i2c.o
 .debug_macro   0x0000000000000f1a       0x47 src/hdc1080.o
 .debug_macro   0x0000000000000f61       0x46 src/hdc1080.o
 .debug_macro   0x0000000000000fa7       0x4c src/hdc1080.o
 .debug_macro   0x0000000000000ff3       0xef src/main.o
 .debug_macro   0x00000000000010e2      0x174 src/main.o
 .debug_macro   0x0000000000001256       0x16 src/main.o
 .debug_macro   0x000000000000126c      0x124 src/main.o
 .debug_macro   0x0000000000001390       0x34 src/main.o
 .debug_macro   0x00000000000013c4      0x182 src/main.o
 .debug_macro   0x0000000000001546       0xe0 src/main.o
 .debug_macro   0x0000000000001626       0x3a src/main.o
 .debug_macro   0x0000000000001660       0x1f src/main.o
 .debug_macro   0x000000000000167f       0x12 src/main.o
 .debug_macro   0x0000000000001691     0x10d4 src/main.o
 .debug_macro   0x0000000000002765       0xc3 src/main.o
 .debug_macro   0x0000000000002828      0x161 src/main.o
 .debug_macro   0x0000000000002989       0x80 src/main.o
 .debug_macro   0x0000000000002a09       0x77 src/main.o
 .debug_macro   0x0000000000002a80       0x4c src/main.o
 .debug_macro   0x0000000000002acc      0x290 freertos/kernel/tasks.o
 .debug_macro   0x0000000000002d5c       0x18 freertos/kernel/tasks.o
 .debug_macro   0x0000000000002d74       0x22 freertos/kernel/tasks.o
 .debug_macro   0x0000000000002d96       0x52 freertos/kernel/tasks.o
 .debug_macro   0x0000000000002de8       0x94 freertos/kernel/tasks.o
 .debug_macro   0x0000000000002e7c       0x35 freertos/kernel/tasks.o
 .debug_macro   0x0000000000002eb1       0x34 freertos/kernel/tasks.o
 .debug_macro   0x0000000000002ee5       0x16 freertos/kernel/tasks.o
 .debug_macro   0x0000000000002efb      0x10e freertos/kernel/tasks.o
 .debug_macro   0x0000000000003009       0x8d freertos/kernel/tasks.o
 .debug_macro   0x0000000000003096       0x16 freertos/kernel/tasks.o
 .debug_macro   0x00000000000030ac       0x43 freertos/kernel/tasks.o
 .debug_macro   0x00000000000030ef       0x57 freertos/kernel/tasks.o
 .debug_macro   0x0000000000003146       0x34 freertos/kernel/tasks.o
 .debug_macro   0x000000000000317a       0x10 freertos/kernel/tasks.o
 .debug_macro   0x000000000000318a       0x52 freertos/kernel/tasks.o
 .debug_macro   0x00000000000031dc      0x182 freertos/kernel/tasks.o
 .debug_macro   0x000000000000335e      0x333 freertos/kernel/tasks.o
 .debug_macro   0x0000000000003691       0x16 freertos/kernel/tasks.o
 .debug_macro   0x00000000000036a7       0x29 freertos/kernel/tasks.o
 .debug_macro   0x00000000000036d0       0x16 freertos/kernel/tasks.o
 .debug_macro   0x00000000000036e6       0x35 freertos/kernel/tasks.o
 .debug_macro   0x000000000000371b       0x98 freertos/kernel/tasks.o
 .debug_macro   0x00000000000037b3       0x16 freertos/kernel/tasks.o
 .debug_macro   0x00000000000037c9      0x203 freertos/kernel/queue.o
 .debug_macro   0x00000000000039cc      0x171 freertos/kernel/list.o
 .debug_macro   0x0000000000003b3d      0x1c0 freertos/kernel/timers.o
 .debug_macro   0x0000000000003cfd       0x9e freertos/kernel/timers.o
 .debug_macro   0x0000000000003d9b      0x162 freertos/portable/ARM_CM3/port.o
 .debug_macro   0x0000000000003efd      0x201 freertos/portable/heap_4.o

.debug_line     0x0000000000000000     0x38f8
 .debug_line    0x0000000000000000       0xee src/startup.o
 .debug_line    0x00000000000000ee      0x241 src/uart.o
 .debug_line    0x000000000000032f      0x16e src/i2c.o
 .debug_line    0x000000000000049d      0x10d src/hdc1080.o
 .debug_line    0x00000000000005aa      0x25f src/main.o
 .debug_line    0x0000000000000809     0x1287 freertos/kernel/tasks.o
 .debug_line    0x0000000000001a90      0xb3c freertos/kernel/queue.o
 .debug_line    0x00000000000025cc      0x326 freertos/kernel/list.o
 .debug_line    0x00000000000028f2      0x5ff freertos/kernel/timers.o
 .debug_line    0x0000000000002ef1      0x263 freertos/portable/ARM_CM3/port.o
 .debug_line    0x0000000000003154      0x524 freertos/portable/heap_4.o
 .debug_line    0x0000000000003678       0xc1 /usr/lib/gcc/arm-none-eabi/10.3.1/../../../arm-none-eabi/lib/thumb/v7-m/nofp/libc_nano.a(lib_a-memcpy.o)
 .debug_line    0x0000000000003739      0x1bf /usr/lib/gcc/arm-none-eabi/10.3.1/../../../arm-none-eabi/lib/thumb/v7-m/nofp/libc_nano.a(lib_a-memset.o)

.debug_str      0x0000000000000000    0x167ee
 .debug_str     0x0000000000000000     0x35b2 src/startup.o
                                       0x3749 (size before relaxing)
 .debug_str     0x00000000000035b2      0x286 src/uart.o
                                       0x3984 (size before relaxing)
 .debug_str     0x0000000000003838      0x176 src/i2c.o
                                       0x3951 (size before relaxing)
 .debug_str     0x00000000000039ae      0x1c3 src/hdc1080.o
                                       0x3a93 (size before relaxing)
 .debug_str     0x0000000000003b71     0xbdfa src/main.o
                                       0xf8e2 (size before relaxing)
 .debug_str     0x000000000000f96b     0x4e59 freertos/kernel/tasks.o
                                      0x134ee (size before relaxing)
 .debug_str     0x00000000000147c4      0xa1c freertos/kernel/queue.o
                                      0x12420 (size before relaxing)
 .debug_str     0x00000000000151e0       0xa4 freertos/kernel/list.o
                                       0xfcee (size before relaxing)
 .debug_str     0x0000000000015284      0x52e freertos/kernel/timers.o
                                      0x1279a (size before relaxing)
 .debug_str     0x00000000000157b2      0x747 freertos/portable/ARM_CM3/port.o
                                       0xeda5 (size before relaxing)
 .debug_str     0x0000000000015ef9      0x727 freertos/portable/heap_4.o
                                      0x11816 (size before relaxing)
 .debug_str     0x0000000000016620       0xb2 /usr/lib/gcc/arm-none-eabi/10.3.1/../../../arm-none-eabi/lib/thumb/v7-m/nofp/libc_nano.a(lib_a-memcpy.o)
 .debug_str     0x00000000000166d2      0x11c /usr/lib/gcc/arm-none-eabi/10.3.1/../../../arm-none-eabi/lib/thumb/v7-m/nofp/libc_nano.a(lib_a-memset.o)
                                        0x1b8 (size before relaxing)

.comment        0x0000000000000000       0x33
 .comment       0x0000000000000000       0x33 src/startup.o
                                         0x34 (size before relaxing)
 .comment       0x0000000000000033       0x34 src/uart.o
 .comment       0x0000000000000033       0x34 src/i2c.o
 .comment       0x0000000000000033       0x34 src/hdc1080.o
 .comment       0x0000000000000033       0x34 src/main.o
 .comment       0x0000000000000033       0x34 freertos/kernel/tasks.o
 .comment       0x0000000000000033       0x34 freertos/kernel/queue.o
 .comment       0x0000000000000033       0x34 freertos/kernel/list.o
 .comment       0x0000000000000033       0x34 freertos/kernel/timers.o
 .comment       0x0000000000000033       0x34 freertos/portable/ARM_CM3/port.o
 .comment       0x0000000000000033       0x34 freertos/portable/heap_4.o
 .comment       0x0000000000000033       0x34 /usr/lib/gcc/arm-none-eabi/10.3.1/../../../arm-none-eabi/lib/thumb/v7-m/nofp/libc_nano.a(lib_a-memset.o)

.ARM.attributes
                0x0000000000000000       0x2b
 .ARM.attributes
                0x0000000000000000       0x2d src/startup.o
 .ARM.attributes
                0x000000000000002d       0x2d src/uart.o
 .ARM.attributes
                0x000000000000005a       0x2d src/i2c.o
 .ARM.attributes
                0x0000000000000087       0x2d src/hdc1080.o
 .ARM.attributes
                0x00000000000000b4       0x2d src/main.o
 .ARM.attributes
                0x00000000000000e1       0x2d freertos/kernel/tasks.o
 .ARM.attributes
                0x000000000000010e       0x2d freertos/kernel/queue.o
 .ARM.attributes
                0x000000000000013b       0x2d freertos/kernel/list.o
 .ARM.attributes
                0x0000000000000168       0x2d freertos/kernel/timers.o
 .ARM.attributes
                0x0000000000000195       0x2d freertos/portable/ARM_CM3/port.o
 .ARM.attributes
                0x00000000000001c2       0x2d freertos/portable/heap_4.o
 .ARM.attributes
                0x00000000000001ef       0x1b /usr/lib/gcc/arm-none-eabi/10.3.1/../../../arm-none-eabi/lib/thumb/v7-m/nofp/libc_nano.a(lib_a-memcpy.o)
 .ARM.attributes
                0x000000000000020a       0x2d /usr/lib/gcc/arm-none-eabi/10.3.1/../../../arm-none-eabi/lib/thumb/v7-m/nofp/libc_nano.a(lib_a-memset.o)

.debug_frame    0x0000000000000000     0x18e0
 .debug_frame   0x0000000000000000       0x90 src/startup.o
 .debug_frame   0x0000000000000090       0xdc src/uart.o
 .debug_frame   0x000000000000016c       0xc0 src/i2c.o
 .debug_frame   0x000000000000022c       0x58 src/hdc1080.o
 .debug_frame   0x0000000000000284       0xcc src/main.o
 .debug_frame   0x0000000000000350      0x8dc freertos/kernel/tasks.o
 .debug_frame   0x0000000000000c2c      0x504 freertos/kernel/queue.o
 .debug_frame   0x0000000000001130       0xd8 freertos/kernel/list.o
 .debug_frame   0x0000000000001208      0x3b4 freertos/kernel/timers.o
 .debug_frame   0x00000000000015bc      0x168 freertos/portable/ARM_CM3/port.o
 .debug_frame   0x0000000000001724      0x190 freertos/portable/heap_4.o
 .debug_frame   0x00000000000018b4       0x2c /usr/lib/gcc/arm-none-eabi/10.3.1/../../../arm-none-eabi/lib/thumb/v7-m/nofp/libc_nano.a(lib_a-memset.o)

.debug_ranges   0x0000000000000000       0x20
 .debug_ranges  0x0000000000000000       0x20 freertos/kernel/tasks.o

.debug_loc      0x0000000000000000      0x22c
 .debug_loc     0x0000000000000000      0x22c /usr/lib/gcc/arm-none-eabi/10.3.1/../../../arm-none-eabi/lib/thumb/v7-m/nofp/libc_nano.a(lib_a-memset.o)
